; Function Attrs: nofree norecurse nosync nounwind memory(read, inaccessiblemem: none) uwtable
define dso_local noundef zeroext i1 @Curl_conn_is_ssl(ptr noundef readonly %0, i32 noundef %1) local_unnamed_addr #7 {
  %.not = icmp eq ptr %0, null
  br i1 %.not, label %Curl_conn_cf_is_ssl.exit, label %3

3:                                                ; preds = %2
  %4 = getelementptr inbounds nuw i8, ptr %0, i64 608
  %5 = sext i32 %1 to i64
  %6 = getelementptr inbounds [2 x ptr], ptr %4, i64 0, i64 %5
  %7 = load ptr, ptr %6, align 8, !tbaa !51
  %.not8.i = icmp eq ptr %7, null
  br i1 %.not8.i, label %Curl_conn_cf_is_ssl.exit, label %.lr.ph.i

.lr.ph.i:                                         ; preds = %3, %12
  %.09.i = phi ptr [ %14, %12 ], [ %7, %3 ]
  %8 = load ptr, ptr %.09.i, align 8, !tbaa !15
  %9 = getelementptr inbounds nuw i8, ptr %8, i64 8
  %10 = load i32, ptr %9, align 8, !tbaa !134
  %11 = and i32 %10, 3
  %or.cond.not.not = icmp eq i32 %11, 0
  br i1 %or.cond.not.not, label %12, label %Curl_conn_cf_is_ssl.exit.loopexit

12:                                               ; preds = %.lr.ph.i
  %13 = getelementptr inbounds nuw i8, ptr %.09.i, i64 8
  %14 = load ptr, ptr %13, align 8, !tbaa !8
  %.not.i = icmp eq ptr %14, null
  br i1 %.not.i, label %Curl_conn_cf_is_ssl.exit.loopexit, label %.lr.ph.i, !llvm.loop !135

Curl_conn_cf_is_ssl.exit.loopexit:                ; preds = %.lr.ph.i, %12
  %15 = and i32 %10, 2
  %.not6.not.i.not.le = icmp ne i32 %15, 0
  br label %Curl_conn_cf_is_ssl.exit

Curl_conn_cf_is_ssl.exit:                         ; preds = %Curl_conn_cf_is_ssl.exit.loopexit, %3, %2
  %16 = phi i1 [ false, %2 ], [ false, %3 ], [ %.not6.not.i.not.le, %Curl_conn_cf_is_ssl.exit.loopexit ]
  ret i1 %16
}